target datalayout = "e-m:e-p270:32:32-p271:32:32-p272:64:64-i64:64-i128:128-f80:128-n8:16:32:64-S128"
target triple = "x86_64-pc-linux-gnu"

%struct.rlc_result_hash_key = type { i32, i32 }
%struct._packet_info = type { ptr, ptr, i32, i32, %struct.nstime_t, %struct.nstime_t, %struct.nstime_t, i8, ptr, ptr, ptr, ptr, %struct._address, %struct._address, %struct._address, %struct._address, %struct._address, %struct._address, i32, ptr, i8, [3 x i8], %struct.anon, i32, i32, i32, i32, ptr, i8, ptr, ptr, i16, i16, i32, i32, i16, i32, i32, ptr, ptr, ptr, i8, i8, i16, i16, i16, i32, i16, i16, ptr, ptr, ptr, ptr, ptr, i32, i32 }
%struct.nstime_t = type { i64, i32 }
%struct._address = type { i32, i32, ptr, ptr }
%struct.anon = type { i8, [3 x i8] }
%struct.channel_sequence_analysis_status = type { i8, i16, i32, i8, ptr }
%struct.rlc_lte_info = type { i8, i8, i8, i8, i16, i16, i16, i16, i8, i32 }

@reassembly_report_hash = internal global ptr null, align 8
@get_report_hash_key.key = internal global %struct.rlc_result_hash_key zeroinitializer, align 4

; Function Attrs: alwaysinline nounwind
define internal ptr @memset.inline(ptr %0, i32 %1, i64 %2) #13 {
  %4 = alloca ptr, align 8
  %5 = alloca i32, align 4
  %6 = alloca i64, align 8
  store ptr %0, ptr %4, align 8
  store i32 %1, ptr %5, align 4
  store i64 %2, ptr %6, align 8
  %7 = load ptr, ptr %4, align 8
  %8 = load i32, ptr %5, align 4
  %9 = load i64, ptr %6, align 8
  %10 = load ptr, ptr %4, align 8
  %11 = call i64 @llvm.objectsize.i64.p0(ptr %10, i1 false, i1 true, i1 true)
  %12 = call ptr @__memset_chk(ptr noundef %7, i32 noundef %8, i64 noundef %9, i64 noundef %11) #16
  ret ptr %12
}

; Function Attrs: null_pointer_is_valid sspstrong uwtable
define internal ptr @get_report_hash_key(i16 noundef zeroext %0, i32 noundef %1, ptr noundef %2, i1 noundef zeroext %3) #0 {
  %5 = alloca i16, align 2
  %6 = alloca i32, align 4
  %7 = alloca ptr, align 8
  %8 = alloca i8, align 1
  %9 = alloca ptr, align 8
  store i16 %0, ptr %5, align 2
  store i32 %1, ptr %6, align 4
  store ptr %2, ptr %7, align 8
  %10 = zext i1 %3 to i8
  store i8 %10, ptr %8, align 1
  call void @llvm.lifetime.start.p0(i64 8, ptr %9) #16
  %11 = load i8, ptr %8, align 1, !range !6, !noundef !7
  %12 = trunc i8 %11 to i1
  br i1 %12, label %13, label %16

13:                                               ; preds = %4
  %14 = call ptr @wmem_file_scope()
  %15 = call noalias ptr @wmem_alloc0(ptr noundef %14, i64 noundef 8) #17
  store ptr %15, ptr %9, align 8
  br label %18

16:                                               ; preds = %4
  %17 = call ptr @memset.inline(ptr noundef @get_report_hash_key.key, i32 noundef 0, i64 noundef 8) #16
  store ptr @get_report_hash_key.key, ptr %9, align 8
  br label %18

18:                                               ; preds = %16, %13
  %19 = load i32, ptr %6, align 4
  %20 = load ptr, ptr %9, align 8
  %21 = getelementptr inbounds nuw %struct.rlc_result_hash_key, ptr %20, i32 0, i32 0
  store i32 %19, ptr %21, align 4
  %22 = load i16, ptr %5, align 2
  %23 = zext i16 %22 to i32
  %24 = load ptr, ptr %9, align 8
  %25 = getelementptr inbounds nuw %struct.rlc_result_hash_key, ptr %24, i32 0, i32 1
  %26 = load i32, ptr %25, align 4
  %27 = and i32 %23, 1023
  %28 = and i32 %26, -1024
  %29 = or i32 %28, %27
  store i32 %29, ptr %25, align 4
  %30 = load ptr, ptr %7, align 8
  %31 = getelementptr inbounds nuw %struct.rlc_lte_info, ptr %30, i32 0, i32 5
  %32 = load i16, ptr %31, align 2
  %33 = zext i16 %32 to i32
  %34 = load ptr, ptr %9, align 8
  %35 = getelementptr inbounds nuw %struct.rlc_result_hash_key, ptr %34, i32 0, i32 1
  %36 = load i32, ptr %35, align 4
  %37 = and i32 %33, 3
  %38 = shl i32 %37, 10
  %39 = and i32 %36, -3073
  %40 = or i32 %39, %38
  store i32 %40, ptr %35, align 4
  %41 = load ptr, ptr %7, align 8
  %42 = getelementptr inbounds nuw %struct.rlc_lte_info, ptr %41, i32 0, i32 6
  %43 = load i16, ptr %42, align 4
  %44 = zext i16 %43 to i32
  %45 = load ptr, ptr %9, align 8
  %46 = getelementptr inbounds nuw %struct.rlc_result_hash_key, ptr %45, i32 0, i32 1
  %47 = load i32, ptr %46, align 4
  %48 = and i32 %44, 31
  %49 = shl i32 %48, 12
  %50 = and i32 %47, -126977
  %51 = or i32 %50, %49
  store i32 %51, ptr %46, align 4
  %52 = load ptr, ptr %7, align 8
  %53 = getelementptr inbounds nuw %struct.rlc_lte_info, ptr %52, i32 0, i32 1
  %54 = load i8, ptr %53, align 1
  %55 = zext i8 %54 to i32
  %56 = load ptr, ptr %9, align 8
  %57 = getelementptr inbounds nuw %struct.rlc_result_hash_key, ptr %56, i32 0, i32 1
  %58 = load i32, ptr %57, align 4
  %59 = and i32 %55, 1
  %60 = shl i32 %59, 17
  %61 = and i32 %58, -131073
  %62 = or i32 %61, %60
  store i32 %62, ptr %57, align 4
  %63 = load ptr, ptr %9, align 8
  call void @llvm.lifetime.end.p0(i64 8, ptr %9) #16
  ret ptr %63
}

; Function Attrs: null_pointer_is_valid sspstrong uwtable
define internal void @reassembly_record(ptr noundef %0, ptr noundef %1, i16 noundef zeroext %2, ptr noundef %3) #0 {
  %5 = alloca ptr, align 8
  %6 = alloca ptr, align 8
  %7 = alloca i16, align 2
  %8 = alloca ptr, align 8
  store ptr %0, ptr %5, align 8
  store ptr %1, ptr %6, align 8
  store i16 %2, ptr %7, align 2
  store ptr %3, ptr %8, align 8
  %9 = load ptr, ptr @reassembly_report_hash, align 8
  %10 = load i16, ptr %7, align 2
  %11 = load ptr, ptr %6, align 8
  %12 = getelementptr inbounds nuw %struct._packet_info, ptr %11, i32 0, i32 3
  %13 = load i32, ptr %12, align 4
  %14 = load ptr, ptr %8, align 8
  %15 = call ptr @get_report_hash_key(i16 noundef zeroext %10, i32 noundef %13, ptr noundef %14, i1 noundef zeroext true)
  %16 = load ptr, ptr %5, align 8
  %17 = getelementptr inbounds nuw %struct.channel_sequence_analysis_status, ptr %16, i32 0, i32 4
  %18 = load ptr, ptr %17, align 8
  %19 = call ptr @wmem_map_insert(ptr noundef %9, ptr noundef %15, ptr noundef %18)
  ret void
}