; Function Attrs: null_pointer_is_valid sspstrong uwtable
define internal fastcc void @reassembly_record(ptr noundef readonly captures(none) %0, i32 %.20.val, i16 noundef zeroext %1, ptr noundef nonnull readonly captures(none) %2) unnamed_addr #0 {
  %4 = load ptr, ptr @reassembly_report_hash, align 8
  %5 = tail call ptr @wmem_file_scope()
  %6 = tail call noalias dereferenceable_or_null(8) ptr @wmem_alloc0(ptr noundef %5, i64 noundef 8) #18
  %.phi.trans.insert.i = getelementptr inbounds nuw i8, ptr %6, i64 4
  %.pre.i = load i32, ptr %.phi.trans.insert.i, align 4
  %7 = and i32 %.pre.i, -262144
  store i32 %.20.val, ptr %6, align 4
  %8 = and i16 %1, 1023
  %9 = zext nneg i16 %8 to i32
  %10 = or disjoint i32 %7, %9
  %11 = getelementptr inbounds nuw i8, ptr %2, i64 6
  %12 = load i16, ptr %11, align 2
  %13 = shl i16 %12, 10
  %14 = getelementptr inbounds nuw i8, ptr %2, i64 8
  %15 = load i16, ptr %14, align 4
  %16 = and i16 %15, 31
  %17 = zext nneg i16 %16 to i32
  %18 = shl nuw nsw i32 %17, 12
  %19 = and i16 %13, 3072
  %.masked = zext nneg i16 %19 to i32
  %20 = or disjoint i32 %10, %.masked
  %21 = or disjoint i32 %20, %18
  %22 = getelementptr inbounds nuw i8, ptr %2, i64 1
  %23 = load i8, ptr %22, align 1
  %24 = and i8 %23, 1
  %25 = zext nneg i8 %24 to i32
  %26 = shl nuw nsw i32 %25, 17
  %27 = or disjoint i32 %21, %26
  store i32 %27, ptr %.phi.trans.insert.i, align 4
  %28 = getelementptr inbounds nuw i8, ptr %0, i64 16
  %29 = load ptr, ptr %28, align 8
  %30 = tail call ptr @wmem_map_insert(ptr noundef %4, ptr noundef %6, ptr noundef %29)
  ret void
}